target datalayout = "e-m:e-p270:32:32-p271:32:32-p272:64:64-i64:64-i128:128-f80:128-n8:16:32:64-S128"
target triple = "x86_64-unknown-linux-gnu"

%"struct.testing::(anonymous namespace)::NonNegative" = type { i32 }
%"class.testing::ThrowingValue" = type { i32 }

; Function Attrs: mustprogress nounwind uwtable
define linkonce_odr dso_local void @_ZN7testing19exceptions_internal13TrackedObjectD2Ev(ptr noundef nonnull align 1 dereferenceable(1) %this) unnamed_addr #7 comdat align 2 personality ptr @__gxx_personality_v0 {
entry:
  %this.addr = alloca ptr, align 8
  store ptr %this, ptr %this.addr, align 8
  %this1 = load ptr, ptr %this.addr, align 8
  invoke void @_ZN7testing19exceptions_internal18ConstructorTracker16ObjectDestructedEPv(ptr noundef %this1)
          to label %invoke.cont unwind label %terminate.lpad

invoke.cont:                                      ; preds = %entry
  ret void

terminate.lpad:                                   ; preds = %entry
  %0 = landingpad { ptr, i32 }
          catch ptr null
  %1 = extractvalue { ptr, i32 } %0, 0
  call void @__clang_call_terminate(ptr %1) #19
  unreachable
}

; Function Attrs: mustprogress nounwind uwtable
define linkonce_odr dso_local void @_ZN7testing13ThrowingValueILNS_8TypeSpecE0EED2Ev(ptr noundef nonnull align 4 dereferenceable(4) %this) unnamed_addr #7 comdat align 2 {
entry:
  %this.addr = alloca ptr, align 8
  store ptr %this, ptr %this.addr, align 8
  %this1 = load ptr, ptr %this.addr, align 8
  call void @_ZN7testing19exceptions_internal13TrackedObjectD2Ev(ptr noundef nonnull align 1 dereferenceable(1) %this1) #3
  ret void
}

; Function Attrs: mustprogress uwtable
define internal void @_ZN7testing12_GLOBAL__N_18HasResetclEv(ptr noundef nonnull align 4 dereferenceable(4) %this) #4 align 2 {
entry:
  %this.addr = alloca ptr, align 8
  %bomb = alloca %"class.testing::ThrowingValue", align 4
  store ptr %this, ptr %this.addr, align 8
  %this1 = load ptr, ptr %this.addr, align 8
  %i = getelementptr inbounds %"struct.testing::(anonymous namespace)::NonNegative", ptr %this1, i32 0, i32 0
  store i32 -1, ptr %i, align 4
  call void @_ZN7testing13ThrowingValueILNS_8TypeSpecE0EEC2Ev(ptr noundef nonnull align 4 dereferenceable(4) %bomb)
  %i2 = getelementptr inbounds %"struct.testing::(anonymous namespace)::NonNegative", ptr %this1, i32 0, i32 0
  store i32 1, ptr %i2, align 4
  call void @_ZN7testing13ThrowingValueILNS_8TypeSpecE0EED2Ev(ptr noundef nonnull align 4 dereferenceable(4) %bomb) #3
  ret void
}

; Function Attrs: mustprogress uwtable
define internal void @"_ZNK7testing12_GLOBAL__N_14$_12clINS0_8HasResetEEEvPT_"(ptr noundef nonnull align 1 dereferenceable(1) %this, ptr noundef %t) #4 align 2 {
entry:
  %this.addr = alloca ptr, align 8
  %t.addr = alloca ptr, align 8
  store ptr %this, ptr %this.addr, align 8
  store ptr %t, ptr %t.addr, align 8
  %0 = load ptr, ptr %t.addr, align 8
  call void @_ZN7testing12_GLOBAL__N_18HasResetclEv(ptr noundef nonnull align 4 dereferenceable(4) %0)
  ret void
}

; Function Attrs: mustprogress nounwind uwtable
define linkonce_odr dso_local noundef ptr @_ZNKSt9_Any_data9_M_accessEv(ptr noundef nonnull align 8 dereferenceable(16) %this) #7 comdat align 2 {
entry:
  %this.addr = alloca ptr, align 8
  store ptr %this, ptr %this.addr, align 8
  %this1 = load ptr, ptr %this.addr, align 8
  %arrayidx = getelementptr inbounds [16 x i8], ptr %this1, i64 0, i64 0
  ret ptr %arrayidx
}

; Function Attrs: mustprogress uwtable
define internal void @"_ZSt13__invoke_implIvRN7testing12_GLOBAL__N_14$_12EJPNS1_8HasResetEEET_St14__invoke_otherOT0_DpOT1_"(ptr noundef nonnull align 1 dereferenceable(1) %__f, ptr noundef nonnull align 8 dereferenceable(8) %__args) #4 {
entry:
  %__f.addr = alloca ptr, align 8
  %__args.addr = alloca ptr, align 8
  store ptr %__f, ptr %__f.addr, align 8
  store ptr %__args, ptr %__args.addr, align 8
  %0 = load ptr, ptr %__f.addr, align 8
  %1 = load ptr, ptr %__args.addr, align 8
  %2 = load ptr, ptr %1, align 8
  call void @"_ZNK7testing12_GLOBAL__N_14$_12clINS0_8HasResetEEEvPT_"(ptr noundef nonnull align 1 dereferenceable(1) %0, ptr noundef %2)
  ret void
}

; Function Attrs: mustprogress nounwind uwtable
define internal noundef nonnull align 1 dereferenceable(1) ptr @"_ZNKSt9_Any_data9_M_accessIN7testing12_GLOBAL__N_14$_12EEERKT_v"(ptr noundef nonnull align 8 dereferenceable(16) %this) #7 align 2 {
entry:
  %this.addr = alloca ptr, align 8
  store ptr %this, ptr %this.addr, align 8
  %this1 = load ptr, ptr %this.addr, align 8
  %call = call noundef ptr @_ZNKSt9_Any_data9_M_accessEv(ptr noundef nonnull align 8 dereferenceable(16) %this1) #3
  ret ptr %call
}

; Function Attrs: mustprogress uwtable
define internal void @"_ZSt10__invoke_rIvRN7testing12_GLOBAL__N_14$_12EJPNS1_8HasResetEEENSt9enable_ifIX16is_invocable_r_vIT_T0_DpT1_EES7_E4typeEOS8_DpOS9_"(ptr noundef nonnull align 1 dereferenceable(1) %__fn, ptr noundef nonnull align 8 dereferenceable(8) %__args) #4 {
entry:
  %__fn.addr = alloca ptr, align 8
  %__args.addr = alloca ptr, align 8
  store ptr %__fn, ptr %__fn.addr, align 8
  store ptr %__args, ptr %__args.addr, align 8
  %0 = load ptr, ptr %__fn.addr, align 8
  %1 = load ptr, ptr %__args.addr, align 8
  call void @"_ZSt13__invoke_implIvRN7testing12_GLOBAL__N_14$_12EJPNS1_8HasResetEEET_St14__invoke_otherOT0_DpOT1_"(ptr noundef nonnull align 1 dereferenceable(1) %0, ptr noundef nonnull align 8 dereferenceable(8) %1)
  ret void
}

; Function Attrs: mustprogress nounwind uwtable
define internal noundef ptr @"_ZNSt14_Function_base13_Base_managerIN7testing12_GLOBAL__N_14$_12EE14_M_get_pointerERKSt9_Any_data"(ptr noundef nonnull align 8 dereferenceable(16) %__source) #7 align 2 {
entry:
  %__source.addr = alloca ptr, align 8
  %__f = alloca ptr, align 8
  store ptr %__source, ptr %__source.addr, align 8
  %0 = load ptr, ptr %__source.addr, align 8
  %call = call noundef nonnull align 1 dereferenceable(1) ptr @"_ZNKSt9_Any_data9_M_accessIN7testing12_GLOBAL__N_14$_12EEERKT_v"(ptr noundef nonnull align 8 dereferenceable(16) %0) #3
  store ptr %call, ptr %__f, align 8
  %1 = load ptr, ptr %__f, align 8
  ret ptr %1
}

; Function Attrs: mustprogress uwtable
define internal void @"_ZNSt17_Function_handlerIFvPN7testing12_GLOBAL__N_18HasResetEENS1_4$_12EE9_M_invokeERKSt9_Any_dataOS3_"(ptr noundef nonnull align 8 dereferenceable(16) %__functor, ptr noundef nonnull align 8 dereferenceable(8) %__args) #4 align 2 {
entry:
  %__functor.addr = alloca ptr, align 8
  %__args.addr = alloca ptr, align 8
  store ptr %__functor, ptr %__functor.addr, align 8
  store ptr %__args, ptr %__args.addr, align 8
  %0 = load ptr, ptr %__functor.addr, align 8
  %call = call noundef ptr @"_ZNSt14_Function_base13_Base_managerIN7testing12_GLOBAL__N_14$_12EE14_M_get_pointerERKSt9_Any_data"(ptr noundef nonnull align 8 dereferenceable(16) %0) #3
  %1 = load ptr, ptr %__args.addr, align 8
  call void @"_ZSt10__invoke_rIvRN7testing12_GLOBAL__N_14$_12EJPNS1_8HasResetEEENSt9enable_ifIX16is_invocable_r_vIT_T0_DpT1_EES7_E4typeEOS8_DpOS9_"(ptr noundef nonnull align 1 dereferenceable(1) %call, ptr noundef nonnull align 8 dereferenceable(8) %1)
  ret void
}