; Function Attrs: mustprogress uwtable
define internal void @"_ZNSt17_Function_handlerIFvPN7testing12_GLOBAL__N_18HasResetEENS1_4$_12EE9_M_invokeERKSt9_Any_dataOS3_"(ptr nocapture nonnull readnone align 8 %__functor, ptr nocapture noundef nonnull readonly align 8 dereferenceable(8) %__args) #3 align 2 personality ptr @__gxx_personality_v0 {
entry:
  %bomb.i.i.i.i = alloca %"class.testing::ThrowingValue", align 4
  %__args.val = load ptr, ptr %__args, align 8
  call void @llvm.lifetime.start.p0(i64 4, ptr nonnull %bomb.i.i.i.i)
  store i32 -1, ptr %__args.val, align 4
  call void @_ZN7testing13ThrowingValueILNS_8TypeSpecE0EEC2Ev(ptr noundef nonnull align 4 dereferenceable(4) %bomb.i.i.i.i)
  store i32 1, ptr %__args.val, align 4
  invoke void @_ZN7testing19exceptions_internal18ConstructorTracker16ObjectDestructedEPv(ptr noundef nonnull %bomb.i.i.i.i)
          to label %"_ZSt10__invoke_rIvRN7testing12_GLOBAL__N_14$_12EJPNS1_8HasResetEEENSt9enable_ifIX16is_invocable_r_vIT_T0_DpT1_EES7_E4typeEOS8_DpOS9_.exit" unwind label %terminate.lpad.i.i.i.i.i.i

terminate.lpad.i.i.i.i.i.i:                       ; preds = %entry
  %0 = landingpad { ptr, i32 }
          catch ptr null
  %1 = extractvalue { ptr, i32 } %0, 0
  call void @__clang_call_terminate(ptr %1) #26
  unreachable

"_ZSt10__invoke_rIvRN7testing12_GLOBAL__N_14$_12EJPNS1_8HasResetEEENSt9enable_ifIX16is_invocable_r_vIT_T0_DpT1_EES7_E4typeEOS8_DpOS9_.exit": ; preds = %entry
  call void @llvm.lifetime.end.p0(i64 4, ptr nonnull %bomb.i.i.i.i)
  ret void
}